target datalayout = "e-m:e-p270:32:32-p271:32:32-p272:64:64-i64:64-i128:128-f80:128-n8:16:32:64-S128"
target triple = "x86_64-pc-linux-gnu"

%struct.bitstream = type { i64, i64, ptr, ptr, ptr }

; Function Attrs: nounwind uwtable
define internal i64 @stream_read_word(ptr noundef %0) #0 {
  %2 = alloca ptr, align 8
  %3 = alloca i64, align 8
  store ptr %0, ptr %2, align 8
  %4 = load ptr, ptr %2, align 8
  %5 = getelementptr inbounds %struct.bitstream, ptr %4, i32 0, i32 2
  %6 = load ptr, ptr %5, align 8
  %7 = getelementptr inbounds i64, ptr %6, i32 1
  store ptr %7, ptr %5, align 8
  %8 = load i64, ptr %6, align 8
  store i64 %8, ptr %3, align 8
  %9 = load i64, ptr %3, align 8
  ret i64 %9
}

; Function Attrs: nounwind uwtable
define void @stream_rseek(ptr noundef %0, i64 noundef %1) #0 {
  %3 = alloca ptr, align 8
  %4 = alloca i64, align 8
  %5 = alloca i64, align 8
  store ptr %0, ptr %3, align 8
  store i64 %1, ptr %4, align 8
  %6 = load i64, ptr %4, align 8
  %7 = urem i64 %6, 64
  store i64 %7, ptr %5, align 8
  %8 = load ptr, ptr %3, align 8
  %9 = getelementptr inbounds %struct.bitstream, ptr %8, i32 0, i32 3
  %10 = load ptr, ptr %9, align 8
  %11 = load i64, ptr %4, align 8
  %12 = udiv i64 %11, 64
  %13 = getelementptr inbounds i64, ptr %10, i64 %12
  %14 = load ptr, ptr %3, align 8
  %15 = getelementptr inbounds %struct.bitstream, ptr %14, i32 0, i32 2
  store ptr %13, ptr %15, align 8
  %16 = load i64, ptr %5, align 8
  %17 = icmp ne i64 %16, 0
  br i1 %17, label %18, label %29

18:                                               ; preds = %2
  %19 = load ptr, ptr %3, align 8
  %20 = call i64 @stream_read_word(ptr noundef %19)
  %21 = load i64, ptr %5, align 8
  %22 = lshr i64 %20, %21
  %23 = load ptr, ptr %3, align 8
  %24 = getelementptr inbounds %struct.bitstream, ptr %23, i32 0, i32 1
  store i64 %22, ptr %24, align 8
  %25 = load i64, ptr %5, align 8
  %26 = sub i64 64, %25
  %27 = load ptr, ptr %3, align 8
  %28 = getelementptr inbounds %struct.bitstream, ptr %27, i32 0, i32 0
  store i64 %26, ptr %28, align 8
  br label %34

29:                                               ; preds = %2
  %30 = load ptr, ptr %3, align 8
  %31 = getelementptr inbounds %struct.bitstream, ptr %30, i32 0, i32 1
  store i64 0, ptr %31, align 8
  %32 = load ptr, ptr %3, align 8
  %33 = getelementptr inbounds %struct.bitstream, ptr %32, i32 0, i32 0
  store i64 0, ptr %33, align 8
  br label %34

34:                                               ; preds = %29, %18
  ret void
}