; Function Attrs: mustprogress nofree norecurse nosync nounwind willreturn memory(read, argmem: readwrite, inaccessiblemem: none) uwtable
define void @stream_rseek(ptr noundef captures(none) initializes((0, 24)) %0, i64 noundef %1) local_unnamed_addr #2 {
  %3 = and i64 %1, 63
  %4 = getelementptr inbounds nuw i8, ptr %0, i64 24
  %5 = load ptr, ptr %4, align 8
  %6 = lshr i64 %1, 6
  %7 = getelementptr inbounds nuw i64, ptr %5, i64 %6
  %8 = getelementptr inbounds nuw i8, ptr %0, i64 16
  store ptr %7, ptr %8, align 8
  %.not = icmp eq i64 %3, 0
  br i1 %.not, label %14, label %9

9:                                                ; preds = %2
  %10 = getelementptr inbounds nuw i8, ptr %7, i64 8
  store ptr %10, ptr %8, align 8
  %11 = load i64, ptr %7, align 8
  %12 = lshr i64 %11, %3
  %13 = sub nuw nsw i64 64, %3
  br label %14

14:                                               ; preds = %2, %9
  %.sink = phi i64 [ %12, %9 ], [ 0, %2 ]
  %storemerge = phi i64 [ %13, %9 ], [ 0, %2 ]
  %15 = getelementptr inbounds nuw i8, ptr %0, i64 8
  store i64 %.sink, ptr %15, align 8
  store i64 %storemerge, ptr %0, align 8
  ret void
}